; ModuleID = '37/442.c'
source_filename = "37/442.c"
target datalayout = "e-m:e-p270:32:32-p271:32:32-p272:64:64-i64:64-f80:128-n8:16:32:64-S128"
target triple = "x86_64-pc-linux-gnu"

@.str = private unnamed_addr constant [4 x i8] c"no\0A\00", align 1
@.str.1 = private unnamed_addr constant [4 x i8] c"%c\0A\00", align 1

; Function Attrs: noinline nounwind uwtable
define dso_local i32 @main() #0 {
  %1 = alloca i32, align 4
  %2 = alloca i32, align 4
  %3 = alloca i32, align 4
  %4 = alloca i32, align 4
  %5 = alloca i32, align 4
  %6 = alloca [1 x i8], align 1
  %7 = alloca [2 x [100000 x i8]], align 16
  %8 = alloca [26 x i32], align 16
  %9 = alloca i32, align 4
  store i32 0, i32* %1, align 4
  %10 = getelementptr inbounds [1 x i8], [1 x i8]* %6, i64 0, i64 0
  %11 = call i32 (i8*, ...) bitcast (i32 (...)* @gets to i32 (i8*, ...)*)(i8* %10)
  %12 = getelementptr inbounds [1 x i8], [1 x i8]* %6, i64 0, i64 0
  %13 = call i32 @atoi(i8* %12) #3
  store i32 %13, i32* %2, align 4
  store i32 0, i32* %3, align 4
  br label %14

14:                                               ; preds = %94, %0
  %15 = load i32, i32* %3, align 4
  %16 = load i32, i32* %2, align 4
  %17 = icmp slt i32 %15, %16
  br i1 %17, label %18, label %97

18:                                               ; preds = %14
  %19 = getelementptr inbounds [2 x [100000 x i8]], [2 x [100000 x i8]]* %7, i64 0, i64 0
  %20 = getelementptr inbounds [100000 x i8], [100000 x i8]* %19, i64 0, i64 0
  %21 = call i32 (i8*, ...) bitcast (i32 (...)* @gets to i32 (i8*, ...)*)(i8* %20)
  %22 = getelementptr inbounds [2 x [100000 x i8]], [2 x [100000 x i8]]* %7, i64 0, i64 0
  %23 = getelementptr inbounds [100000 x i8], [100000 x i8]* %22, i64 0, i64 0
  %24 = call i64 @strlen(i8* %23) #3
  %25 = trunc i64 %24 to i32
  store i32 %25, i32* %5, align 4
  store i32 0, i32* %4, align 4
  br label %26

26:                                               ; preds = %33, %18
  %27 = load i32, i32* %4, align 4
  %28 = icmp slt i32 %27, 26
  br i1 %28, label %29, label %36

29:                                               ; preds = %26
  %30 = load i32, i32* %4, align 4
  %31 = sext i32 %30 to i64
  %32 = getelementptr inbounds [26 x i32], [26 x i32]* %8, i64 0, i64 %31
  store i32 0, i32* %32, align 4
  br label %33

33:                                               ; preds = %29
  %34 = load i32, i32* %4, align 4
  %35 = add nsw i32 %34, 1
  store i32 %35, i32* %4, align 4
  br label %26

36:                                               ; preds = %26
  store i32 0, i32* %4, align 4
  br label %37

37:                                               ; preds = %54, %36
  %38 = load i32, i32* %4, align 4
  %39 = load i32, i32* %5, align 4
  %40 = icmp slt i32 %38, %39
  br i1 %40, label %41, label %57

41:                                               ; preds = %37
  %42 = getelementptr inbounds [2 x [100000 x i8]], [2 x [100000 x i8]]* %7, i64 0, i64 0
  %43 = load i32, i32* %4, align 4
  %44 = sext i32 %43 to i64
  %45 = getelementptr inbounds [100000 x i8], [100000 x i8]* %42, i64 0, i64 %44
  %46 = load i8, i8* %45, align 1
  %47 = sext i8 %46 to i32
  %48 = sub nsw i32 %47, 97
  store i32 %48, i32* %9, align 4
  %49 = load i32, i32* %9, align 4
  %50 = sext i32 %49 to i64
  %51 = getelementptr inbounds [26 x i32], [26 x i32]* %8, i64 0, i64 %50
  %52 = load i32, i32* %51, align 4
  %53 = add nsw i32 %52, 1
  store i32 %53, i32* %51, align 4
  br label %54

54:                                               ; preds = %41
  %55 = load i32, i32* %4, align 4
  %56 = add nsw i32 %55, 1
  store i32 %56, i32* %4, align 4
  br label %37

57:                                               ; preds = %37
  store i32 0, i32* %4, align 4
  br label %58

58:                                               ; preds = %76, %57
  %59 = load i32, i32* %4, align 4
  %60 = load i32, i32* %5, align 4
  %61 = icmp slt i32 %59, %60
  br i1 %61, label %62, label %79

62:                                               ; preds = %58
  %63 = getelementptr inbounds [2 x [100000 x i8]], [2 x [100000 x i8]]* %7, i64 0, i64 0
  %64 = load i32, i32* %4, align 4
  %65 = sext i32 %64 to i64
  %66 = getelementptr inbounds [100000 x i8], [100000 x i8]* %63, i64 0, i64 %65
  %67 = load i8, i8* %66, align 1
  %68 = sext i8 %67 to i32
  %69 = sub nsw i32 %68, 97
  %70 = sext i32 %69 to i64
  %71 = getelementptr inbounds [26 x i32], [26 x i32]* %8, i64 0, i64 %70
  %72 = load i32, i32* %71, align 4
  %73 = icmp eq i32 %72, 1
  br i1 %73, label %74, label %75

74:                                               ; preds = %62
  br label %79

75:                                               ; preds = %62
  br label %76

76:                                               ; preds = %75
  %77 = load i32, i32* %4, align 4
  %78 = add nsw i32 %77, 1
  store i32 %78, i32* %4, align 4
  br label %58

79:                                               ; preds = %74, %58
  %80 = load i32, i32* %4, align 4
  %81 = load i32, i32* %5, align 4
  %82 = icmp eq i32 %80, %81
  br i1 %82, label %83, label %85

83:                                               ; preds = %79
  %84 = call i32 (i8*, ...) @printf(i8* getelementptr inbounds ([4 x i8], [4 x i8]* @.str, i64 0, i64 0))
  br label %93

85:                                               ; preds = %79
  %86 = getelementptr inbounds [2 x [100000 x i8]], [2 x [100000 x i8]]* %7, i64 0, i64 0
  %87 = load i32, i32* %4, align 4
  %88 = sext i32 %87 to i64
  %89 = getelementptr inbounds [100000 x i8], [100000 x i8]* %86, i64 0, i64 %88
  %90 = load i8, i8* %89, align 1
  %91 = sext i8 %90 to i32
  %92 = call i32 (i8*, ...) @printf(i8* getelementptr inbounds ([4 x i8], [4 x i8]* @.str.1, i64 0, i64 0), i32 %91)
  br label %93

93:                                               ; preds = %85, %83
  br label %94

94:                                               ; preds = %93
  %95 = load i32, i32* %3, align 4
  %96 = add nsw i32 %95, 1
  store i32 %96, i32* %3, align 4
  br label %14

97:                                               ; preds = %14
  %98 = call i32 @getchar()
  %99 = call i32 @getchar()
  %100 = call i32 @getchar()
  %101 = call i32 @getchar()
  %102 = call i32 @getchar()
  %103 = load i32, i32* %1, align 4
  ret i32 %103
}

declare dso_local i32 @gets(...) #1

; Function Attrs: nounwind readonly
declare dso_local i32 @atoi(i8*) #2

; Function Attrs: nounwind readonly
declare dso_local i64 @strlen(i8*) #2

declare dso_local i32 @printf(i8*, ...) #1

declare dso_local i32 @getchar() #1


!llvm.module.flags = !{!0}
!llvm.ident = !{!1}

!0 = !{i32 1, !"wchar_size", i32 4}
!1 = !{!"clang version 10.0.0-4ubuntu1 "}
