; ModuleID = 'source-C-CXX/36/442.c'
source_filename = "source-C-CXX/36/442.c"
target datalayout = "e-m:e-p270:32:32-p271:32:32-p272:64:64-i64:64-f80:128-n8:16:32:64-S128"
target triple = "x86_64-pc-linux-gnu"

%struct._IO_FILE = type { i32, i8*, i8*, i8*, i8*, i8*, i8*, i8*, i8*, i8*, i8*, i8*, %struct._IO_marker*, %struct._IO_FILE*, i32, i32, i64, i16, i8, [1 x i8], i8*, i64, %struct._IO_codecvt*, %struct._IO_wide_data*, %struct._IO_FILE*, i8*, i64, i32, [20 x i8] }
%struct._IO_marker = type opaque
%struct._IO_codecvt = type opaque
%struct._IO_wide_data = type opaque

@.str.1 = private unnamed_addr constant [4 x i8] c"%c\0A\00", align 1
@stdin = external local_unnamed_addr global %struct._IO_FILE*, align 8
@str = private unnamed_addr constant [3 x i8] c"no\00", align 1

; Function Attrs: nounwind sspstrong uwtable
define dso_local i32 @main() local_unnamed_addr #0 {
  %1 = alloca [1 x i8], align 1
  %2 = alloca [2 x [100000 x i8]], align 16
  %3 = alloca [26 x i32], align 16
  %4 = bitcast [26 x i32]* %3 to i8*
  %5 = getelementptr inbounds [1 x i8], [1 x i8]* %1, i64 0, i64 0
  call void @llvm.lifetime.start.p0i8(i64 1, i8* nonnull %5) #8
  %6 = call i32 (i8*, ...) bitcast (i32 (...)* @gets to i32 (i8*, ...)*)(i8* nonnull %5) #8
  %7 = call i64 @strtol(i8* nocapture nonnull %5, i8** null, i32 10) #8
  %8 = trunc i64 %7 to i32
  %9 = getelementptr inbounds [2 x [100000 x i8]], [2 x [100000 x i8]]* %2, i64 0, i64 0, i64 0
  call void @llvm.lifetime.start.p0i8(i64 200000, i8* nonnull %9) #8
  call void @llvm.lifetime.start.p0i8(i64 104, i8* nonnull %4) #8
  %10 = icmp sgt i32 %8, 0
  br i1 %10, label %11, label %86

11:                                               ; preds = %0, %83
  %12 = phi i32 [ %84, %83 ], [ 0, %0 ]
  %13 = call i32 (i8*, ...) bitcast (i32 (...)* @gets to i32 (i8*, ...)*)(i8* nonnull %9) #8
  %14 = call i64 @strlen(i8* noundef nonnull %9) #9
  call void @llvm.memset.p0i8.i64(i8* noundef nonnull align 16 dereferenceable(104) %4, i8 0, i64 104, i1 false)
  %15 = trunc i64 %14 to i32
  %16 = icmp sgt i32 %15, 0
  br i1 %16, label %17, label %72

17:                                               ; preds = %11
  %18 = and i64 %14, 4294967295
  %19 = and i64 %14, 1
  %20 = icmp eq i64 %18, 1
  br i1 %20, label %23, label %21

21:                                               ; preds = %17
  %22 = sub nsw i64 %18, %19
  br label %37

23:                                               ; preds = %37, %17
  %24 = phi i64 [ 0, %17 ], [ %55, %37 ]
  %25 = icmp eq i64 %19, 0
  br i1 %25, label %34, label %26

26:                                               ; preds = %23
  %27 = getelementptr inbounds [2 x [100000 x i8]], [2 x [100000 x i8]]* %2, i64 0, i64 0, i64 %24
  %28 = load i8, i8* %27, align 1, !tbaa !5
  %29 = sext i8 %28 to i64
  %30 = add nsw i64 %29, -97
  %31 = getelementptr inbounds [26 x i32], [26 x i32]* %3, i64 0, i64 %30
  %32 = load i32, i32* %31, align 4, !tbaa !8
  %33 = add nsw i32 %32, 1
  store i32 %33, i32* %31, align 4, !tbaa !8
  br label %34

34:                                               ; preds = %23, %26
  br i1 %16, label %35, label %72

35:                                               ; preds = %34
  %36 = and i64 %14, 4294967295
  br label %58

37:                                               ; preds = %37, %21
  %38 = phi i64 [ 0, %21 ], [ %55, %37 ]
  %39 = phi i64 [ %22, %21 ], [ %56, %37 ]
  %40 = getelementptr inbounds [2 x [100000 x i8]], [2 x [100000 x i8]]* %2, i64 0, i64 0, i64 %38
  %41 = load i8, i8* %40, align 2, !tbaa !5
  %42 = sext i8 %41 to i64
  %43 = add nsw i64 %42, -97
  %44 = getelementptr inbounds [26 x i32], [26 x i32]* %3, i64 0, i64 %43
  %45 = load i32, i32* %44, align 4, !tbaa !8
  %46 = add nsw i32 %45, 1
  store i32 %46, i32* %44, align 4, !tbaa !8
  %47 = or i64 %38, 1
  %48 = getelementptr inbounds [2 x [100000 x i8]], [2 x [100000 x i8]]* %2, i64 0, i64 0, i64 %47
  %49 = load i8, i8* %48, align 1, !tbaa !5
  %50 = sext i8 %49 to i64
  %51 = add nsw i64 %50, -97
  %52 = getelementptr inbounds [26 x i32], [26 x i32]* %3, i64 0, i64 %51
  %53 = load i32, i32* %52, align 4, !tbaa !8
  %54 = add nsw i32 %53, 1
  store i32 %54, i32* %52, align 4, !tbaa !8
  %55 = add nuw nsw i64 %38, 2
  %56 = add i64 %39, -2
  %57 = icmp eq i64 %56, 0
  br i1 %57, label %23, label %37, !llvm.loop !10

58:                                               ; preds = %35, %67
  %59 = phi i64 [ 0, %35 ], [ %68, %67 ]
  %60 = getelementptr inbounds [2 x [100000 x i8]], [2 x [100000 x i8]]* %2, i64 0, i64 0, i64 %59
  %61 = load i8, i8* %60, align 1, !tbaa !5
  %62 = sext i8 %61 to i64
  %63 = add nsw i64 %62, -97
  %64 = getelementptr inbounds [26 x i32], [26 x i32]* %3, i64 0, i64 %63
  %65 = load i32, i32* %64, align 4, !tbaa !8
  %66 = icmp eq i32 %65, 1
  br i1 %66, label %70, label %67

67:                                               ; preds = %58
  %68 = add nuw nsw i64 %59, 1
  %69 = icmp eq i64 %68, %36
  br i1 %69, label %75, label %58, !llvm.loop !12

70:                                               ; preds = %58
  %71 = trunc i64 %59 to i32
  br label %72

72:                                               ; preds = %70, %11, %34
  %73 = phi i32 [ 0, %34 ], [ 0, %11 ], [ %71, %70 ]
  %74 = icmp eq i32 %73, %15
  br i1 %74, label %75, label %77

75:                                               ; preds = %67, %72
  %76 = call i32 @puts(i8* nonnull dereferenceable(1) getelementptr inbounds ([3 x i8], [3 x i8]* @str, i64 0, i64 0))
  br label %83

77:                                               ; preds = %72
  %78 = zext i32 %73 to i64
  %79 = getelementptr inbounds [2 x [100000 x i8]], [2 x [100000 x i8]]* %2, i64 0, i64 0, i64 %78
  %80 = load i8, i8* %79, align 1, !tbaa !5
  %81 = sext i8 %80 to i32
  %82 = call i32 (i8*, ...) @printf(i8* nonnull dereferenceable(1) getelementptr inbounds ([4 x i8], [4 x i8]* @.str.1, i64 0, i64 0), i32 %81)
  br label %83

83:                                               ; preds = %75, %77
  %84 = add nuw nsw i32 %12, 1
  %85 = icmp eq i32 %84, %8
  br i1 %85, label %86, label %11, !llvm.loop !13

86:                                               ; preds = %83, %0
  %87 = load %struct._IO_FILE*, %struct._IO_FILE** @stdin, align 8, !tbaa !14
  %88 = call i32 @getc(%struct._IO_FILE* %87) #8
  %89 = load %struct._IO_FILE*, %struct._IO_FILE** @stdin, align 8, !tbaa !14
  %90 = call i32 @getc(%struct._IO_FILE* %89) #8
  %91 = load %struct._IO_FILE*, %struct._IO_FILE** @stdin, align 8, !tbaa !14
  %92 = call i32 @getc(%struct._IO_FILE* %91) #8
  %93 = load %struct._IO_FILE*, %struct._IO_FILE** @stdin, align 8, !tbaa !14
  %94 = call i32 @getc(%struct._IO_FILE* %93) #8
  %95 = load %struct._IO_FILE*, %struct._IO_FILE** @stdin, align 8, !tbaa !14
  %96 = call i32 @getc(%struct._IO_FILE* %95) #8
  call void @llvm.lifetime.end.p0i8(i64 104, i8* nonnull %4) #8
  call void @llvm.lifetime.end.p0i8(i64 200000, i8* nonnull %9) #8
  call void @llvm.lifetime.end.p0i8(i64 1, i8* nonnull %5) #8
  ret i32 0
}

; Function Attrs: argmemonly mustprogress nofree nosync nounwind willreturn
declare void @llvm.lifetime.start.p0i8(i64 immarg, i8* nocapture) #1

declare i32 @gets(...) local_unnamed_addr #2

; Function Attrs: argmemonly mustprogress nofree nounwind readonly willreturn
declare i64 @strlen(i8* nocapture) local_unnamed_addr #3

; Function Attrs: argmemonly mustprogress nofree nosync nounwind willreturn
declare void @llvm.lifetime.end.p0i8(i64 immarg, i8* nocapture) #1

; Function Attrs: nofree nounwind
declare noundef i32 @printf(i8* nocapture noundef readonly, ...) local_unnamed_addr #4

; Function Attrs: mustprogress nofree nounwind willreturn
declare i64 @strtol(i8* readonly, i8** nocapture, i32) local_unnamed_addr #5

; Function Attrs: nofree nounwind
declare noundef i32 @getc(%struct._IO_FILE* nocapture noundef) local_unnamed_addr #4

; Function Attrs: nofree nounwind
declare noundef i32 @puts(i8* nocapture noundef readonly) local_unnamed_addr #6

; Function Attrs: argmemonly nofree nounwind willreturn writeonly
declare void @llvm.memset.p0i8.i64(i8* nocapture writeonly, i8, i64, i1 immarg) #7


!llvm.module.flags = !{!0, !1, !2, !3}
!llvm.ident = !{!4}

!0 = !{i32 1, !"wchar_size", i32 4}
!1 = !{i32 7, !"PIC Level", i32 2}
!2 = !{i32 7, !"PIE Level", i32 2}
!3 = !{i32 7, !"uwtable", i32 1}
!4 = !{!"clang version 13.0.0"}
!5 = !{!6, !6, i64 0}
!6 = !{!"omnipotent char", !7, i64 0}
!7 = !{!"Simple C/C++ TBAA"}
!8 = !{!9, !9, i64 0}
!9 = !{!"int", !6, i64 0}
!10 = distinct !{!10, !11}
!11 = !{!"llvm.loop.mustprogress"}
!12 = distinct !{!12, !11}
!13 = distinct !{!13, !11}
!14 = !{!15, !15, i64 0}
!15 = !{!"any pointer", !6, i64 0}
